; Function Attrs: nounwind uwtable
define noundef ptr @Str_ManNormalize(ptr noundef %0) local_unnamed_addr #0 {
  %2 = tail call ptr @Gia_ManDupMuxes(ptr noundef %0, i32 noundef 5) #26
  %3 = tail call ptr @Str_ManDeriveTrees(ptr noundef %2)
  tail call void @Str_ManCheckOverlap(ptr noundef %2, ptr noundef %3)
  %4 = getelementptr i8, ptr %2, i64 24
  %.val = load i32, ptr %4, align 8, !tbaa !3
  %5 = tail call noalias dereferenceable_or_null(16) ptr @malloc(i64 noundef 16) #28
  %6 = add i32 %.val, -1
  %or.cond.i.i.i = icmp ult i32 %6, 15
  %spec.store.select.i.i.i = select i1 %or.cond.i.i.i, i32 16, i32 %.val
  %7 = getelementptr inbounds nuw i8, ptr %5, i64 4
  store i32 %spec.store.select.i.i.i, ptr %5, align 8, !tbaa !47
  %.not.i.i.i = icmp eq i32 %spec.store.select.i.i.i, 0
  br i1 %.not.i.i.i, label %Vec_IntAlloc.exit.thread.i.i, label %Vec_IntAlloc.exit.i.i

Vec_IntAlloc.exit.thread.i.i:                     ; preds = %1
  %8 = getelementptr inbounds nuw i8, ptr %5, i64 8
  store ptr null, ptr %8, align 8, !tbaa !36
  store i32 %.val, ptr %7, align 4, !tbaa !45
  br label %Vec_IntStartFull.exit.i

Vec_IntAlloc.exit.i.i:                            ; preds = %1
  %9 = sext i32 %spec.store.select.i.i.i to i64
  %10 = shl nsw i64 %9, 2
  %11 = tail call noalias ptr @malloc(i64 noundef %10) #28
  %12 = getelementptr inbounds nuw i8, ptr %5, i64 8
  store ptr %11, ptr %12, align 8, !tbaa !36
  store i32 %.val, ptr %7, align 4, !tbaa !45
  %.not.i.i = icmp eq ptr %11, null
  br i1 %.not.i.i, label %Vec_IntStartFull.exit.i, label %13

13:                                               ; preds = %Vec_IntAlloc.exit.i.i
  %14 = sext i32 %.val to i64
  %15 = shl nsw i64 %14, 2
  tail call void @llvm.memset.p0.i64(ptr nonnull align 4 %11, i8 -1, i64 %15, i1 false)
  br label %Vec_IntStartFull.exit.i

Vec_IntStartFull.exit.i:                          ; preds = %13, %Vec_IntAlloc.exit.i.i, %Vec_IntAlloc.exit.thread.i.i
  %.val20.i = phi ptr [ null, %Vec_IntAlloc.exit.thread.i.i ], [ null, %Vec_IntAlloc.exit.i.i ], [ %11, %13 ]
  %16 = getelementptr i8, ptr %3, i64 4
  %.val1923.i = load i32, ptr %16, align 4, !tbaa !78
  %17 = icmp sgt i32 %.val1923.i, 0
  br i1 %17, label %.lr.ph25.i, label %Str_ManCreateRoots.exit

.lr.ph25.i:                                       ; preds = %Vec_IntStartFull.exit.i
  %18 = getelementptr i8, ptr %3, i64 8
  %.val18.i = load ptr, ptr %18, align 8, !tbaa !77
  %19 = zext nneg i32 %.val1923.i to i64
  br label %20

20:                                               ; preds = %.critedge2.i, %.lr.ph25.i
  %indvars.iv27.i = phi i64 [ 0, %.lr.ph25.i ], [ %indvars.iv.next28.i, %.critedge2.i ]
  %21 = getelementptr inbounds nuw %struct.Vec_Int_t_, ptr %.val18.i, i64 %indvars.iv27.i
  %22 = getelementptr i8, ptr %21, i64 4
  %.val21.i = load i32, ptr %22, align 4, !tbaa !45
  %23 = icmp sgt i32 %.val21.i, 0
  br i1 %23, label %.lr.ph.i, label %.critedge2.i

.lr.ph.i:                                         ; preds = %20
  %24 = getelementptr i8, ptr %21, i64 8
  %.val17.i = load ptr, ptr %24, align 8, !tbaa !36
  %25 = trunc nuw nsw i64 %indvars.iv27.i to i32
  br label %26

26:                                               ; preds = %26, %.lr.ph.i
  %indvars.iv.i = phi i64 [ 0, %.lr.ph.i ], [ %indvars.iv.next.i, %26 ]
  %27 = getelementptr inbounds nuw i32, ptr %.val17.i, i64 %indvars.iv.i
  %28 = load i32, ptr %27, align 4, !tbaa !38
  %29 = sext i32 %28 to i64
  %30 = getelementptr inbounds i32, ptr %.val20.i, i64 %29
  store i32 %25, ptr %30, align 4, !tbaa !38
  %indvars.iv.next.i = add nuw nsw i64 %indvars.iv.i, 1
  %.val.i = load i32, ptr %22, align 4, !tbaa !45
  %31 = sext i32 %.val.i to i64
  %32 = icmp slt i64 %indvars.iv.next.i, %31
  br i1 %32, label %26, label %.critedge2.i, !llvm.loop !80

.critedge2.i:                                     ; preds = %26, %20
  %indvars.iv.next28.i = add nuw nsw i64 %indvars.iv27.i, 1
  %exitcond.not = icmp eq i64 %indvars.iv.next28.i, %19
  br i1 %exitcond.not, label %Str_ManCreateRoots.exit, label %20, !llvm.loop !81

Str_ManCreateRoots.exit:                          ; preds = %.critedge2.i, %Vec_IntStartFull.exit.i
  %33 = tail call ptr @Str_ManNormalizeInt(ptr noundef %2, ptr noundef %3, ptr noundef nonnull %5)
  tail call void @Gia_ManCleanMark0(ptr noundef %2) #26
  tail call void @Gia_ManStop(ptr noundef %2) #26
  %34 = getelementptr inbounds nuw i8, ptr %5, i64 8
  %35 = load ptr, ptr %34, align 8, !tbaa !36
  %.not.i = icmp eq ptr %35, null
  br i1 %.not.i, label %Vec_IntFree.exit, label %36

36:                                               ; preds = %Str_ManCreateRoots.exit
  tail call void @free(ptr noundef nonnull %35) #26
  br label %Vec_IntFree.exit

Vec_IntFree.exit:                                 ; preds = %Str_ManCreateRoots.exit, %36
  tail call void @free(ptr noundef nonnull %5) #26
  %37 = load i32, ptr %3, align 8, !tbaa !75
  %38 = icmp sgt i32 %37, 0
  %39 = getelementptr inbounds nuw i8, ptr %3, i64 8
  %.pre.i.i = load ptr, ptr %39, align 8, !tbaa !77
  br i1 %38, label %.lr.ph.i.i, label %._crit_edge.i.i

.lr.ph.i.i:                                       ; preds = %Vec_IntFree.exit, %47
  %40 = phi i32 [ %48, %47 ], [ %37, %Vec_IntFree.exit ]
  %41 = phi ptr [ %49, %47 ], [ %.pre.i.i, %Vec_IntFree.exit ]
  %indvars.iv.i.i = phi i64 [ %indvars.iv.next.i.i, %47 ], [ 0, %Vec_IntFree.exit ]
  %42 = getelementptr inbounds nuw %struct.Vec_Int_t_, ptr %41, i64 %indvars.iv.i.i, i32 2
  %43 = load ptr, ptr %42, align 8, !tbaa !36
  %.not15.i.i = icmp eq ptr %43, null
  br i1 %.not15.i.i, label %47, label %44

44:                                               ; preds = %.lr.ph.i.i
  tail call void @free(ptr noundef nonnull %43) #26
  %45 = load ptr, ptr %39, align 8, !tbaa !77
  %46 = getelementptr inbounds nuw %struct.Vec_Int_t_, ptr %45, i64 %indvars.iv.i.i, i32 2
  store ptr null, ptr %46, align 8, !tbaa !36
  %.pre18.i.i = load i32, ptr %3, align 8, !tbaa !75
  br label %47

47:                                               ; preds = %44, %.lr.ph.i.i
  %48 = phi i32 [ %.pre18.i.i, %44 ], [ %40, %.lr.ph.i.i ]
  %49 = phi ptr [ %45, %44 ], [ %41, %.lr.ph.i.i ]
  %indvars.iv.next.i.i = add nuw nsw i64 %indvars.iv.i.i, 1
  %50 = sext i32 %48 to i64
  %51 = icmp slt i64 %indvars.iv.next.i.i, %50
  br i1 %51, label %.lr.ph.i.i, label %._crit_edge.thread.i.i, !llvm.loop !105

._crit_edge.i.i:                                  ; preds = %Vec_IntFree.exit
  %.not.i.i14 = icmp eq ptr %.pre.i.i, null
  br i1 %.not.i.i14, label %Vec_WecFree.exit, label %._crit_edge.thread.i.i

._crit_edge.thread.i.i:                           ; preds = %47, %._crit_edge.i.i
  %52 = phi ptr [ %.pre.i.i, %._crit_edge.i.i ], [ %49, %47 ]
  tail call void @free(ptr noundef nonnull %52) #26
  br label %Vec_WecFree.exit

Vec_WecFree.exit:                                 ; preds = %._crit_edge.i.i, %._crit_edge.thread.i.i
  tail call void @free(ptr noundef nonnull %3) #26
  ret ptr %33
}